; Function Attrs: null_pointer_is_valid sspstrong uwtable
define internal void @bssmap_res_req(ptr noundef %0, ptr noundef %1, ptr noundef %2, i32 noundef %3, i32 noundef %4) #1 {
  %6 = icmp sgt i32 %4, 0
  br i1 %6, label %7, label %13

7:                                                ; preds = %5
  %8 = tail call zeroext i16 @elem_tv(ptr noundef %0, ptr noundef %1, ptr noundef %2, i8 noundef zeroext 12, i32 noundef 0, i32 noundef 12, i32 noundef %3, ptr noundef null)
  %.not = icmp eq i16 %8, 0
  br i1 %.not, label %13, label %9

9:                                                ; preds = %7
  %10 = zext i16 %8 to i32
  %11 = add i32 %3, %10
  %12 = sub nsw i32 %4, %10
  br label %16

13:                                               ; preds = %7, %5
  %14 = tail call ptr @get_gsm_a_msg_string(i32 noundef 0, i32 noundef 12)
  %15 = tail call ptr (ptr, ptr, ptr, ptr, i32, i32, ptr, ...) @proto_tree_add_expert_format(ptr noundef %1, ptr noundef %2, ptr noundef nonnull @ei_gsm_a_bssmap_missing_mandatory_element, ptr noundef %0, i32 noundef %3, i32 noundef 0, ptr noundef nonnull @.str.139, i32 noundef 12, ptr noundef %14, ptr noundef nonnull @.str.137)
  br label %16

16:                                               ; preds = %13, %9
  %.062 = phi i32 [ %11, %9 ], [ %3, %13 ]
  %.0 = phi i32 [ %12, %9 ], [ %4, %13 ]
  %17 = icmp sgt i32 %.0, 0
  br i1 %17, label %18, label %24

18:                                               ; preds = %16
  %19 = tail call zeroext i16 @elem_tv(ptr noundef %0, ptr noundef %1, ptr noundef %2, i8 noundef zeroext 28, i32 noundef 0, i32 noundef 28, i32 noundef %.062, ptr noundef null)
  %.not71 = icmp eq i16 %19, 0
  br i1 %.not71, label %24, label %20

20:                                               ; preds = %18
  %21 = zext i16 %19 to i32
  %22 = add i32 %.062, %21
  %23 = sub nsw i32 %.0, %21
  br label %27

24:                                               ; preds = %18, %16
  %25 = tail call ptr @get_gsm_a_msg_string(i32 noundef 0, i32 noundef 28)
  %26 = tail call ptr (ptr, ptr, ptr, ptr, i32, i32, ptr, ...) @proto_tree_add_expert_format(ptr noundef %1, ptr noundef %2, ptr noundef nonnull @ei_gsm_a_bssmap_missing_mandatory_element, ptr noundef %0, i32 noundef %.062, i32 noundef 0, ptr noundef nonnull @.str.139, i32 noundef 28, ptr noundef %25, ptr noundef nonnull @.str.137)
  br label %27

27:                                               ; preds = %24, %20
  %.163 = phi i32 [ %22, %20 ], [ %.062, %24 ]
  %.1 = phi i32 [ %23, %20 ], [ %.0, %24 ]
  %28 = icmp sgt i32 %.1, 0
  br i1 %28, label %29, label %35

29:                                               ; preds = %27
  %30 = tail call zeroext i16 @elem_tlv(ptr noundef %0, ptr noundef %1, ptr noundef %2, i8 noundef zeroext 5, i32 noundef 0, i32 noundef 5, i32 noundef %.163, i32 noundef %.1, ptr noundef null)
  %.not72 = icmp eq i16 %30, 0
  br i1 %.not72, label %35, label %31

31:                                               ; preds = %29
  %32 = zext i16 %30 to i32
  %33 = add i32 %.163, %32
  %34 = sub nsw i32 %.1, %32
  br label %38

35:                                               ; preds = %29, %27
  %36 = tail call ptr @get_gsm_a_msg_string(i32 noundef 0, i32 noundef 5)
  %37 = tail call ptr (ptr, ptr, ptr, ptr, i32, i32, ptr, ...) @proto_tree_add_expert_format(ptr noundef %1, ptr noundef %2, ptr noundef nonnull @ei_gsm_a_bssmap_missing_mandatory_element, ptr noundef %0, i32 noundef %.163, i32 noundef 0, ptr noundef nonnull @.str.139, i32 noundef 5, ptr noundef %36, ptr noundef nonnull @.str.137)
  br label %38

38:                                               ; preds = %35, %31
  %.264 = phi i32 [ %33, %31 ], [ %.163, %35 ]
  %.2 = phi i32 [ %34, %31 ], [ %.1, %35 ]
  %39 = icmp sgt i32 %.2, 0
  br i1 %39, label %40, label %46

40:                                               ; preds = %38
  %41 = tail call zeroext i16 @elem_tv(ptr noundef %0, ptr noundef %1, ptr noundef %2, i8 noundef zeroext 13, i32 noundef 0, i32 noundef 13, i32 noundef %.264, ptr noundef null)
  %.not73 = icmp eq i16 %41, 0
  br i1 %.not73, label %46, label %42

42:                                               ; preds = %40
  %43 = zext i16 %41 to i32
  %44 = add i32 %.264, %43
  %45 = sub nsw i32 %.2, %43
  br label %49

46:                                               ; preds = %40, %38
  %47 = tail call ptr @get_gsm_a_msg_string(i32 noundef 0, i32 noundef 13)
  %48 = tail call ptr (ptr, ptr, ptr, ptr, i32, i32, ptr, ...) @proto_tree_add_expert_format(ptr noundef %1, ptr noundef %2, ptr noundef nonnull @ei_gsm_a_bssmap_missing_mandatory_element, ptr noundef %0, i32 noundef %.264, i32 noundef 0, ptr noundef nonnull @.str.139, i32 noundef 13, ptr noundef %47, ptr noundef nonnull @.str.137)
  br label %49

49:                                               ; preds = %46, %42
  %.365 = phi i32 [ %44, %42 ], [ %.264, %46 ]
  %.3 = phi i32 [ %45, %42 ], [ %.2, %46 ]
  %.not74 = icmp eq i32 %.3, 0
  br i1 %.not74, label %52, label %50

50:                                               ; preds = %49
  %51 = tail call ptr @proto_tree_add_expert(ptr noundef %1, ptr noundef %2, ptr noundef nonnull @ei_gsm_a_bssmap_extraneous_data, ptr noundef %0, i32 noundef %.365, i32 noundef %.3)
  br label %52

52:                                               ; preds = %50, %49
  ret void
}